target datalayout = "e-m:e-p270:32:32-p271:32:32-p272:64:64-i64:64-i128:128-f80:128-n8:16:32:64-S128"
target triple = "x86_64-pc-linux-gnu"

%"class.LIEF::MachO::RelocationFixup" = type { %"class.LIEF::MachO::Relocation", i32, i64, i32, i32, %union.anon.38 }
%"class.LIEF::MachO::Relocation" = type { %"class.LIEF::Relocation.base", ptr, i8, i32, ptr, ptr }
%"class.LIEF::Relocation.base" = type <{ %"class.LIEF::Object", i64, i8 }>
%"class.LIEF::Object" = type { ptr }
%union.anon.38 = type { ptr }

; Function Attrs: mustprogress nounwind uwtable
define noundef i32 @_ZNK4LIEF5MachO15RelocationFixup4nextEv(ptr noundef nonnull align 8 dereferenceable(88) %0) #1 align 2 {
  %2 = alloca i32, align 4
  %3 = alloca ptr, align 8
  store ptr %0, ptr %3, align 8, !tbaa !15
  %4 = load ptr, ptr %3, align 8
  %5 = getelementptr inbounds nuw %"class.LIEF::MachO::RelocationFixup", ptr %4, i32 0, i32 4
  %6 = load i32, ptr %5, align 4, !tbaa !19
  switch i32 %6, label %35 [
    i32 1, label %7
    i32 2, label %14
    i32 3, label %21
    i32 4, label %28
    i32 0, label %34
  ]

7:                                                ; preds = %1
  %8 = getelementptr inbounds nuw %"class.LIEF::MachO::RelocationFixup", ptr %4, i32 0, i32 5
  %9 = load ptr, ptr %8, align 8, !tbaa !10
  %10 = load i64, ptr %9, align 8
  %11 = lshr i64 %10, 51
  %12 = and i64 %11, 2047
  %13 = trunc i64 %12 to i32
  store i32 %13, ptr %2, align 4
  br label %36

14:                                               ; preds = %1
  %15 = getelementptr inbounds nuw %"class.LIEF::MachO::RelocationFixup", ptr %4, i32 0, i32 5
  %16 = load ptr, ptr %15, align 8, !tbaa !10
  %17 = load i64, ptr %16, align 8
  %18 = lshr i64 %17, 51
  %19 = and i64 %18, 2047
  %20 = trunc i64 %19 to i32
  store i32 %20, ptr %2, align 4
  br label %36

21:                                               ; preds = %1
  %22 = getelementptr inbounds nuw %"class.LIEF::MachO::RelocationFixup", ptr %4, i32 0, i32 5
  %23 = load ptr, ptr %22, align 8, !tbaa !10
  %24 = load i64, ptr %23, align 8
  %25 = lshr i64 %24, 51
  %26 = and i64 %25, 4095
  %27 = trunc i64 %26 to i32
  store i32 %27, ptr %2, align 4
  br label %36

28:                                               ; preds = %1
  %29 = getelementptr inbounds nuw %"class.LIEF::MachO::RelocationFixup", ptr %4, i32 0, i32 5
  %30 = load ptr, ptr %29, align 8, !tbaa !10
  %31 = load i32, ptr %30, align 4
  %32 = lshr i32 %31, 26
  %33 = and i32 %32, 31
  store i32 %33, ptr %2, align 4
  br label %36

34:                                               ; preds = %1
  store i32 0, ptr %2, align 4
  br label %36

35:                                               ; preds = %1
  store i32 0, ptr %2, align 4
  br label %36

36:                                               ; preds = %35, %34, %28, %21, %14, %7
  %37 = load i32, ptr %2, align 4
  ret i32 %37
}