; Function Attrs: mustprogress nofree norecurse nosync nounwind willreturn memory(read, inaccessiblemem: none) uwtable
define noundef range(i32 0, 4096) i32 @_ZNK4LIEF5MachO15RelocationFixup4nextEv(ptr noundef nonnull readonly align 8 captures(none) dereferenceable(88) %0) local_unnamed_addr #7 align 2 {
  %2 = getelementptr inbounds nuw i8, ptr %0, i64 76
  %3 = load i32, ptr %2, align 4, !tbaa !6
  switch i32 %3, label %31 [
    i32 1, label %4
    i32 2, label %11
    i32 3, label %18
    i32 4, label %25
  ]

4:                                                ; preds = %1
  %5 = getelementptr inbounds nuw i8, ptr %0, i64 80
  %6 = load ptr, ptr %5, align 8, !tbaa !21
  %7 = load i64, ptr %6, align 8
  %8 = lshr i64 %7, 51
  %9 = trunc nuw nsw i64 %8 to i32
  %10 = and i32 %9, 2047
  br label %31

11:                                               ; preds = %1
  %12 = getelementptr inbounds nuw i8, ptr %0, i64 80
  %13 = load ptr, ptr %12, align 8, !tbaa !21
  %14 = load i64, ptr %13, align 8
  %15 = lshr i64 %14, 51
  %16 = trunc nuw nsw i64 %15 to i32
  %17 = and i32 %16, 2047
  br label %31

18:                                               ; preds = %1
  %19 = getelementptr inbounds nuw i8, ptr %0, i64 80
  %20 = load ptr, ptr %19, align 8, !tbaa !21
  %21 = load i64, ptr %20, align 8
  %22 = lshr i64 %21, 51
  %23 = trunc nuw nsw i64 %22 to i32
  %24 = and i32 %23, 4095
  br label %31

25:                                               ; preds = %1
  %26 = getelementptr inbounds nuw i8, ptr %0, i64 80
  %27 = load ptr, ptr %26, align 8, !tbaa !21
  %28 = load i32, ptr %27, align 4
  %29 = lshr i32 %28, 26
  %30 = and i32 %29, 31
  br label %31

31:                                               ; preds = %1, %25, %18, %11, %4
  %.0 = phi i32 [ %30, %25 ], [ %24, %18 ], [ %17, %11 ], [ %10, %4 ], [ 0, %1 ]
  ret i32 %.0
}